; Function Attrs: mustprogress nofree norecurse nosync nounwind memory(readwrite, inaccessiblemem: none) uwtable
define hidden noundef i32 @_ZN10ValueStack6unlockEv(ptr nocapture noundef nonnull readonly align 8 dereferenceable(81) %0) local_unnamed_addr #4 align 2 {
  %2 = getelementptr inbounds i8, ptr %0, i64 72
  %3 = load ptr, ptr %2, align 8
  %4 = load i32, ptr %3, align 8
  %5 = add nsw i32 %4, -1
  store i32 %5, ptr %3, align 8
  br label %6

6:                                                ; preds = %_ZNK10ValueStack10locks_sizeEv.exit.i, %1
  %.07.i = phi ptr [ %0, %1 ], [ %15, %_ZNK10ValueStack10locks_sizeEv.exit.i ]
  %.056.i = phi i32 [ 0, %1 ], [ %13, %_ZNK10ValueStack10locks_sizeEv.exit.i ]
  %7 = getelementptr inbounds i8, ptr %.07.i, i64 72
  %8 = load ptr, ptr %7, align 8
  %9 = icmp eq ptr %8, null
  br i1 %9, label %_ZNK10ValueStack10locks_sizeEv.exit.i, label %10

10:                                               ; preds = %6
  %11 = load i32, ptr %8, align 4
  br label %_ZNK10ValueStack10locks_sizeEv.exit.i

_ZNK10ValueStack10locks_sizeEv.exit.i:            ; preds = %10, %6
  %12 = phi i32 [ %11, %10 ], [ 0, %6 ]
  %13 = add nsw i32 %12, %.056.i
  %14 = getelementptr inbounds i8, ptr %.07.i, i64 8
  %15 = load ptr, ptr %14, align 8
  %.not.i = icmp eq ptr %15, null
  br i1 %.not.i, label %_ZNK10ValueStack16total_locks_sizeEv.exit, label %6, !llvm.loop !20

_ZNK10ValueStack16total_locks_sizeEv.exit:        ; preds = %_ZNK10ValueStack10locks_sizeEv.exit.i
  ret i32 %13
}